; Function Attrs: nounwind uwtable
define ptr @evp_generic_fetch_from_prov(ptr noundef %0, i32 noundef %1, ptr noundef %2, ptr noundef %3, ptr noundef %4, ptr noundef %5, ptr noundef %6) local_unnamed_addr #0 {
  %8 = alloca %struct.evp_method_data_st, align 8
  call void @llvm.lifetime.start.p0(i64 72, ptr nonnull %8) #5
  %9 = tail call ptr @ossl_provider_libctx(ptr noundef %0) #5
  store ptr %9, ptr %8, align 8, !tbaa !3
  %10 = getelementptr inbounds nuw i8, ptr %8, i64 32
  store ptr null, ptr %10, align 8, !tbaa !12
  %11 = call fastcc ptr @inner_evp_generic_fetch(ptr noundef %8, ptr noundef %0, i32 noundef %1, ptr noundef %2, ptr noundef %3, ptr noundef %4, ptr noundef %5, ptr noundef %6)
  %12 = load ptr, ptr %10, align 8, !tbaa !12
  %.not.i = icmp eq ptr %12, null
  br i1 %.not.i, label %dealloc_tmp_evp_method_store.exit, label %13

13:                                               ; preds = %7
  call void @ossl_method_store_free(ptr noundef nonnull %12) #5
  br label %dealloc_tmp_evp_method_store.exit

dealloc_tmp_evp_method_store.exit:                ; preds = %7, %13
  call void @llvm.lifetime.end.p0(i64 72, ptr nonnull %8) #5
  ret ptr %11
}